Certificate:
    Data:
        Version: 3 (0x2)
        Serial Number: 0 (0x0)
    Signature Algorithm: sha256WithRSAEncryption
        Issuer: C=IT, ST=BARI, L=BARI, O=Internet Widgits Pty Ltd
        Validity
            Not Before: May  9 20:52:11 2018 GMT
            Not After : May  9 20:52:11 2019 GMT
        Subject: C=IT, ST=BARI, L=BARI, O=CEP, OU=CEP, CN=CEP
        Subject Public Key Info:
            Public Key Algorithm: rsaEncryption
                Public-Key: (2048 bit)
                Modulus:
                    00:e5:0e:a1:7f:e9:2f:59:b8:0c:3e:34:58:f9:77:
                    23:70:83:fb:c9:9e:97:d5:2e:ee:cd:14:2d:a4:a3:
                    cc:06:10:83:88:51:9a:67:56:2e:4c:8e:56:56:2b:
                    bb:e1:eb:66:35:86:13:a0:4f:15:05:5d:cd:ff:23:
                    71:3f:46:b8:c2:e7:84:4e:f8:7b:5d:fa:34:ac:a9:
                    38:83:cc:24:43:53:16:88:e2:75:5d:57:c3:ec:71:
                    a7:3c:94:a4:da:22:99:78:3f:21:57:ae:52:68:55:
                    9c:31:04:36:6f:40:c0:b1:54:d8:07:12:be:7b:01:
                    6c:86:0f:7d:2f:77:ac:b0:c3:fa:01:29:ea:be:08:
                    44:2b:a5:60:38:78:31:39:f4:5a:ab:4a:92:68:a0:
                    e4:40:25:15:17:28:cb:b8:03:31:e7:b8:ee:d3:e8:
                    28:e4:65:0f:dd:7c:6b:47:ee:da:b7:83:b5:63:44:
                    11:b2:17:72:cf:fc:c8:33:f9:05:cb:3d:f2:9b:c4:
                    76:36:14:8d:16:4c:10:f3:08:00:47:90:f5:5c:00:
                    47:62:18:a2:e6:e7:3e:c3:16:4c:7a:9a:66:b3:2b:
                    1c:5f:8c:f1:1f:52:f8:7f:9c:29:eb:05:bd:cc:d7:
                    aa:08:52:ba:30:e4:47:e5:bb:0f:23:be:b2:43:96:
                    21:03
                Exponent: 65537 (0x10001)
        X509v3 extensions:
            X509v3 Basic Constraints: 
                CA:FALSE
            Netscape Comment: 
                OpenSSL Generated Certificate
            X509v3 Subject Key Identifier: 
                82:8E:3B:61:09:3C:96:84:08:95:DE:9C:59:27:CA:31:CB:65:EB:63
            X509v3 Authority Key Identifier: 
                keyid:FC:7D:68:EB:B3:F0:68:28:0B:37:05:4F:AE:8A:EB:17:C2:F1:B3:8D

    Signature Algorithm: sha256WithRSAEncryption
         5f:ff:9d:a9:fb:a9:19:56:2a:30:e5:fc:8a:73:c5:4d:cb:3d:
         a6:56:dc:8a:1f:29:fa:88:f7:bb:43:05:b0:e8:69:2e:c5:5f:
         29:f1:f5:2e:e3:5e:02:64:cd:83:1a:81:62:27:7c:84:84:80:
         72:0a:bc:92:af:35:ab:0f:f2:84:94:94:63:f9:ab:70:c1:d4:
         fc:68:5a:be:12:2f:a2:0f:5d:8d:f0:6c:5d:c4:9d:3e:a9:1b:
         c0:58:fc:62:23:d5:ca:77:c7:40:43:2c:b0:df:61:3f:74:52:
         ca:f5:4d:da:80:14:9a:e4:05:99:d2:b3:5b:1a:e5:81:11:5f:
         4e:29:fd:1d:a9:13:4a:b6:e4:b3:43:95:e6:e1:f0:06:26:27:
         0b:18:06:68:29:ec:bd:50:3f:6b:45:f3:cb:38:6f:ce:f6:37:
         97:15:93:83:74:e6:fb:0e:5e:49:44:7d:cb:b9:06:0b:72:c1:
         c7:45:59:f0:86:db:11:5f:cb:e6:5c:aa:71:a5:93:19:5a:34:
         2a:5f:8b:7f:91:8c:b8:79:48:28:97:9f:04:31:ff:51:16:12:
         52:e6:97:b0:fd:36:dd:6b:7c:5d:2c:78:a4:0e:17:51:9f:b0:
         bc:3b:90:65:c3:f6:bb:b7:76:de:a0:ad:a3:66:88:6d:70:4c:
         d2:5f:e2:2d
-----BEGIN CERTIFICATE-----
MIIDmTCCAoGgAwIBAgIBADANBgkqhkiG9w0BAQsFADBOMQswCQYDVQQGEwJJVDEN
MAsGA1UECAwEQkFSSTENMAsGA1UEBwwEQkFSSTEhMB8GA1UECgwYSW50ZXJuZXQg
V2lkZ2l0cyBQdHkgTHRkMB4XDTE4MDUwOTIwNTIxMVoXDTE5MDUwOTIwNTIxMVow
VTELMAkGA1UEBhMCSVQxDTALBgNVBAgMBEJBUkkxDTALBgNVBAcMBEJBUkkxDDAK
BgNVBAoMA0NFUDEMMAoGA1UECwwDQ0VQMQwwCgYDVQQDDANDRVAwggEiMA0GCSqG
SIb3DQEBAQUAA4IBDwAwggEKAoIBAQDlDqF/6S9ZuAw+NFj5dyNwg/vJnpfVLu7N
FC2ko8wGEIOIUZpnVi5MjlZWK7vh62Y1hhOgTxUFXc3/I3E/RrjC54RO+Htd+jSs
qTiDzCRDUxaI4nVdV8Pscac8lKTaIpl4PyFXrlJoVZwxBDZvQMCxVNgHEr57AWyG
D30vd6yww/oBKeq+CEQrpWA4eDE59FqrSpJooORAJRUXKMu4AzHnuO7T6CjkZQ/d
fGtH7tq3g7VjRBGyF3LP/Mgz+QXLPfKbxHY2FI0WTBDzCABHkPVcAEdiGKLm5z7D
Fkx6mmazKxxfjPEfUvh/nCnrBb3M16oIUrow5Efluw8jvrJDliEDAgMBAAGjezB5
MAkGA1UdEwQCMAAwLAYJYIZIAYb4QgENBB8WHU9wZW5TU0wgR2VuZXJhdGVkIENl
cnRpZmljYXRlMB0GA1UdDgQWBBSCjjthCTyWhAiV3pxZJ8oxy2XrYzAfBgNVHSME
GDAWgBT8fWjrs/BoKAs3BU+uiusXwvGzjTANBgkqhkiG9w0BAQsFAAOCAQEAX/+d
qfupGVYqMOX8inPFTcs9plbcih8p+oj3u0MFsOhpLsVfKfH1LuNeAmTNgxqBYid8
hISAcgq8kq81qw/yhJSUY/mrcMHU/GhavhIvog9djfBsXcSdPqkbwFj8YiPVynfH
QEMssN9hP3RSyvVN2oAUmuQFmdKzWxrlgRFfTin9HakTSrbks0OV5uHwBiYnCxgG
aCnsvVA/a0XzyzhvzvY3lxWTg3Tm+w5eSUR9y7kGC3LBx0VZ8IbbEV/L5lyqcaWT
GVo0Kl+Lf5GMuHlIKJefBDH/URYSUuaXsP023Wt8XSx4pA4XUZ+wvDuQZcP2u7d2
3qCto2aIbXBM0l/iLQ==
-----END CERTIFICATE-----
